target datalayout = "e-m:e-p270:32:32-p271:32:32-p272:64:64-i64:64-i128:128-f80:128-n8:16:32:64-S128"
target triple = "x86_64-pc-linux-gnu"

%"class.std::pmr::polymorphic_allocator.29" = type { ptr }
%"class.pro::details::allocated_ptr" = type { %"class.std::pmr::polymorphic_allocator.29", ptr }
%"class.(anonymous namespace)::Rectangle" = type { double, double }
%"struct.(anonymous namespace)::spec::Draw::__FT" = type { i8 }

@.str.33 = private unnamed_addr constant [21 x i8] c"{Rectangle: width = \00", align 1
@.str.34 = private unnamed_addr constant [12 x i8] c", height = \00", align 1
@.str.35 = private unnamed_addr constant [2 x i8] c"}\00", align 1

; Function Attrs: mustprogress nounwind uwtable
define internal noundef ptr @_ZSt12__to_addressIN12_GLOBAL__N_19RectangleEEPT_S3_(ptr noundef %0) #7 {
  %2 = alloca ptr, align 8
  store ptr %0, ptr %2, align 8
  %3 = load ptr, ptr %2, align 8
  ret ptr %3
}

; Function Attrs: mustprogress nounwind uwtable
define internal noundef ptr @_ZNK3pro7details13allocated_ptrIN12_GLOBAL__N_19RectangleENSt3pmr21polymorphic_allocatorISt4byteEEEptEv(ptr noundef nonnull align 8 dereferenceable(16) %0) #7 align 2 {
  %2 = alloca ptr, align 8
  store ptr %0, ptr %2, align 8
  %3 = load ptr, ptr %2, align 8
  %4 = getelementptr inbounds %"class.pro::details::allocated_ptr", ptr %3, i32 0, i32 1
  %5 = load ptr, ptr %4, align 8
  ret ptr %5
}

; Function Attrs: mustprogress uwtable
define internal void @_ZNK12_GLOBAL__N_19Rectangle4DrawERSo(ptr noundef nonnull align 8 dereferenceable(16) %0, ptr noundef nonnull align 8 dereferenceable(8) %1) #4 align 2 {
  %3 = alloca ptr, align 8
  %4 = alloca ptr, align 8
  store ptr %0, ptr %3, align 8
  store ptr %1, ptr %4, align 8
  %5 = load ptr, ptr %3, align 8
  %6 = load ptr, ptr %4, align 8
  %7 = call noundef nonnull align 8 dereferenceable(8) ptr @_ZStlsISt11char_traitsIcEERSt13basic_ostreamIcT_ES5_PKc(ptr noundef nonnull align 8 dereferenceable(8) %6, ptr noundef @.str.33)
  %8 = getelementptr inbounds %"class.(anonymous namespace)::Rectangle", ptr %5, i32 0, i32 0
  %9 = load double, ptr %8, align 8
  %10 = call noundef nonnull align 8 dereferenceable(8) ptr @_ZNSolsEd(ptr noundef nonnull align 8 dereferenceable(8) %7, double noundef %9)
  %11 = call noundef nonnull align 8 dereferenceable(8) ptr @_ZStlsISt11char_traitsIcEERSt13basic_ostreamIcT_ES5_PKc(ptr noundef nonnull align 8 dereferenceable(8) %10, ptr noundef @.str.34)
  %12 = getelementptr inbounds %"class.(anonymous namespace)::Rectangle", ptr %5, i32 0, i32 1
  %13 = load double, ptr %12, align 8
  %14 = call noundef nonnull align 8 dereferenceable(8) ptr @_ZNSolsEd(ptr noundef nonnull align 8 dereferenceable(8) %11, double noundef %13)
  %15 = call noundef nonnull align 8 dereferenceable(8) ptr @_ZStlsISt11char_traitsIcEERSt13basic_ostreamIcT_ES5_PKc(ptr noundef nonnull align 8 dereferenceable(8) %14, ptr noundef @.str.35)
  ret void
}

; Function Attrs: mustprogress nounwind uwtable
define internal noundef ptr @_ZSt12__to_addressIN3pro7details13allocated_ptrIN12_GLOBAL__N_19RectangleENSt3pmr21polymorphic_allocatorISt4byteEEEEJEEDaRKT_DpT0_(ptr noundef nonnull align 8 dereferenceable(16) %0) #7 {
  %2 = alloca ptr, align 8
  store ptr %0, ptr %2, align 8
  %3 = load ptr, ptr %2, align 8
  %4 = call noundef ptr @_ZNK3pro7details13allocated_ptrIN12_GLOBAL__N_19RectangleENSt3pmr21polymorphic_allocatorISt4byteEEEptEv(ptr noundef nonnull align 8 dereferenceable(16) %3) #3
  %5 = call noundef ptr @_ZSt12__to_addressIN12_GLOBAL__N_19RectangleEEPT_S3_(ptr noundef %4) #3
  ret ptr %5
}

; Function Attrs: mustprogress uwtable
define internal void @_ZN12_GLOBAL__N_14spec4Draw4__FTclINS_9RectangleEJRSoEEEDcRT_DpOT0_QrqXcldtfp_4Drawspclgssr3stdE7forwardIS8_Efp0_EEE(ptr noundef nonnull align 1 dereferenceable(1) %0, ptr noundef nonnull align 8 dereferenceable(16) %1, ptr noundef nonnull align 8 dereferenceable(8) %2) #4 align 2 {
  %4 = alloca ptr, align 8
  %5 = alloca ptr, align 8
  %6 = alloca ptr, align 8
  store ptr %0, ptr %4, align 8
  store ptr %1, ptr %5, align 8
  store ptr %2, ptr %6, align 8
  %7 = load ptr, ptr %5, align 8
  %8 = load ptr, ptr %6, align 8
  call void @_ZNK12_GLOBAL__N_19Rectangle4DrawERSo(ptr noundef nonnull align 8 dereferenceable(16) %7, ptr noundef nonnull align 8 dereferenceable(8) %8)
  ret void
}

; Function Attrs: mustprogress nounwind uwtable
define internal noundef ptr @_ZSt10to_addressIN3pro7details13allocated_ptrIN12_GLOBAL__N_19RectangleENSt3pmr21polymorphic_allocatorISt4byteEEEEEDaRKT_(ptr noundef nonnull align 8 dereferenceable(16) %0) #7 {
  %2 = alloca ptr, align 8
  store ptr %0, ptr %2, align 8
  %3 = load ptr, ptr %2, align 8
  %4 = call noundef ptr @_ZSt12__to_addressIN3pro7details13allocated_ptrIN12_GLOBAL__N_19RectangleENSt3pmr21polymorphic_allocatorISt4byteEEEEJEEDaRKT_DpT0_(ptr noundef nonnull align 8 dereferenceable(16) %3) #3
  ret ptr %4
}

; Function Attrs: mustprogress uwtable
define internal void @_ZN3pro7details15invoke_dispatchIN12_GLOBAL__N_14spec4Draw4__FTEvJRNS2_9RectangleERSoEEET0_DpOT1_(ptr noundef nonnull align 8 dereferenceable(16) %0, ptr noundef nonnull align 8 dereferenceable(8) %1) #4 {
  %3 = alloca ptr, align 8
  %4 = alloca ptr, align 8
  %5 = alloca %"struct.(anonymous namespace)::spec::Draw::__FT", align 1
  store ptr %0, ptr %3, align 8
  store ptr %1, ptr %4, align 8
  %6 = load ptr, ptr %3, align 8
  %7 = load ptr, ptr %4, align 8
  call void @_ZN12_GLOBAL__N_14spec4Draw4__FTclINS_9RectangleEJRSoEEEDcRT_DpOT0_QrqXcldtfp_4Drawspclgssr3stdE7forwardIS8_Efp0_EEE(ptr noundef nonnull align 1 dereferenceable(1) %5, ptr noundef nonnull align 8 dereferenceable(16) %6, ptr noundef nonnull align 8 dereferenceable(8) %7)
  ret void
}

; Function Attrs: mustprogress nounwind uwtable
define internal noundef nonnull align 8 dereferenceable(16) ptr @_ZN3pro7details10ptr_traitsINS0_13allocated_ptrIN12_GLOBAL__N_19RectangleENSt3pmr21polymorphic_allocatorISt4byteEEEEE11dereferenceERKS9_(ptr noundef nonnull align 8 dereferenceable(16) %0) #7 align 2 {
  %2 = alloca ptr, align 8
  store ptr %0, ptr %2, align 8
  %3 = load ptr, ptr %2, align 8
  %4 = call noundef ptr @_ZSt10to_addressIN3pro7details13allocated_ptrIN12_GLOBAL__N_19RectangleENSt3pmr21polymorphic_allocatorISt4byteEEEEEDaRKT_(ptr noundef nonnull align 8 dereferenceable(16) %3) #3
  ret ptr %4
}

; Function Attrs: mustprogress nounwind uwtable
define internal noundef ptr @_ZSt7launderIKN3pro7details13allocated_ptrIN12_GLOBAL__N_19RectangleENSt3pmr21polymorphic_allocatorISt4byteEEEEEPT_SC_(ptr noundef %0) #7 {
  %2 = alloca ptr, align 8
  store ptr %0, ptr %2, align 8
  %3 = load ptr, ptr %2, align 8
  ret ptr %3
}

; Function Attrs: mustprogress uwtable
define internal void @_ZN3pro7details25invocation_dispatcher_refINS0_13allocated_ptrIN12_GLOBAL__N_19RectangleENSt3pmr21polymorphic_allocatorISt4byteEEEENS3_4spec4Draw4__FTEvJRSoEEET1_PKS7_DpT2_(ptr noundef %0, ptr noundef nonnull align 8 dereferenceable(8) %1) #4 {
  %3 = alloca ptr, align 8
  %4 = alloca ptr, align 8
  store ptr %0, ptr %3, align 8
  store ptr %1, ptr %4, align 8
  %5 = load ptr, ptr %3, align 8
  %6 = call noundef ptr @_ZSt7launderIKN3pro7details13allocated_ptrIN12_GLOBAL__N_19RectangleENSt3pmr21polymorphic_allocatorISt4byteEEEEEPT_SC_(ptr noundef %5) #3
  %7 = call noundef nonnull align 8 dereferenceable(16) ptr @_ZN3pro7details10ptr_traitsINS0_13allocated_ptrIN12_GLOBAL__N_19RectangleENSt3pmr21polymorphic_allocatorISt4byteEEEEE11dereferenceERKS9_(ptr noundef nonnull align 8 dereferenceable(16) %6) #3
  %8 = load ptr, ptr %4, align 8
  call void @_ZN3pro7details15invoke_dispatchIN12_GLOBAL__N_14spec4Draw4__FTEvJRNS2_9RectangleERSoEEET0_DpOT1_(ptr noundef nonnull align 8 dereferenceable(16) %7, ptr noundef nonnull align 8 dereferenceable(8) %8)
  ret void
}