; Function Attrs: mustprogress uwtable
define internal void @_ZN3pro7details25invocation_dispatcher_refINS0_13allocated_ptrIN12_GLOBAL__N_19RectangleENSt3pmr21polymorphic_allocatorISt4byteEEEENS3_4spec4Draw4__FTEvJRSoEEET1_PKS7_DpT2_(ptr nocapture noundef readonly %0, ptr noundef nonnull align 8 dereferenceable(8) %1) #3 {
  %3 = getelementptr i8, ptr %0, i64 8
  %.val = load ptr, ptr %3, align 8
  %4 = tail call noundef nonnull align 8 dereferenceable(8) ptr @_ZStlsISt11char_traitsIcEERSt13basic_ostreamIcT_ES5_PKc(ptr noundef nonnull align 8 dereferenceable(8) %1, ptr noundef nonnull @.str.33)
  %5 = load double, ptr %.val, align 8
  %6 = tail call noundef nonnull align 8 dereferenceable(8) ptr @_ZNSolsEd(ptr noundef nonnull align 8 dereferenceable(8) %4, double noundef %5)
  %7 = tail call noundef nonnull align 8 dereferenceable(8) ptr @_ZStlsISt11char_traitsIcEERSt13basic_ostreamIcT_ES5_PKc(ptr noundef nonnull align 8 dereferenceable(8) %6, ptr noundef nonnull @.str.34)
  %8 = getelementptr inbounds i8, ptr %.val, i64 8
  %9 = load double, ptr %8, align 8
  %10 = tail call noundef nonnull align 8 dereferenceable(8) ptr @_ZNSolsEd(ptr noundef nonnull align 8 dereferenceable(8) %7, double noundef %9)
  %11 = tail call noundef nonnull align 8 dereferenceable(8) ptr @_ZStlsISt11char_traitsIcEERSt13basic_ostreamIcT_ES5_PKc(ptr noundef nonnull align 8 dereferenceable(8) %10, ptr noundef nonnull @.str.35)
  ret void
}